target datalayout = "e-m:e-p270:32:32-p271:32:32-p272:64:64-i64:64-i128:128-f80:128-n8:16:32:64-S128"
target triple = "x86_64-pc-linux-gnu"

%struct.QTailQLink = type { ptr, ptr }
%struct.QemuMutex = type { %union.pthread_mutex_t, i8 }
%union.pthread_mutex_t = type { %struct.__pthread_mutex_s }
%struct.__pthread_mutex_s = type { i32, i32, i32, i32, i32, i16, i16, %struct.__pthread_internal_list }
%struct.__pthread_internal_list = type { ptr, ptr }
%struct.BlockDriverState = type { i32, i8, i8, i8, i8, i8, ptr, ptr, ptr, %struct.anon, i8, [4096 x i8], [4096 x i8], [4096 x i8], [16 x i8], ptr, [4096 x i8], %struct.BlockLimits, i32, i32, i32, i32, [32 x i8], %union.anon.0, %union.anon.1, %union.anon.2, i32, [15 x %struct.anon.3], ptr, %struct.anon.4, ptr, ptr, %struct.anon.5, ptr, ptr, i32, ptr, i64, i64, %struct.QemuMutex, %struct.anon.6, %struct.Stat64, i32, i32, i32, i32, i32, i32, %struct.QemuMutex, %struct.anon.7, %struct.CoQueue, i8, i32, i8, %struct.CoMutex, ptr, ptr }
%struct.anon = type { ptr }
%struct.BlockLimits = type { i32, i64, i32, i64, i32, i32, i32, i64, i32, i64, i64, i32, i8, i32, i32, i32, i32, i32, i32, i32 }
%union.anon.0 = type { %struct.QTailQLink }
%union.anon.1 = type { %struct.QTailQLink }
%union.anon.2 = type { %struct.QTailQLink }
%struct.anon.3 = type { ptr }
%struct.anon.4 = type { ptr }
%struct.anon.5 = type { ptr }
%struct.anon.6 = type { ptr }
%struct.Stat64 = type { i64 }
%struct.anon.7 = type { ptr }
%struct.CoQueue = type { %struct.anon.8 }
%struct.anon.8 = type { ptr, ptr }
%struct.CoMutex = type { i32, ptr, %struct.anon.9, %struct.anon.9, i32, i32, ptr }
%struct.anon.9 = type { ptr }
%struct.BlockDriver = type { ptr, i32, i8, i8, i8, i8, i8, i8, ptr, ptr, ptr, ptr, ptr, ptr, ptr, ptr, ptr, ptr, ptr, ptr, ptr, ptr, ptr, ptr, ptr, ptr, ptr, ptr, ptr, ptr, ptr, ptr, ptr, ptr, ptr, ptr, ptr, ptr, ptr, ptr, ptr, ptr, ptr, ptr, ptr, ptr, ptr, ptr, ptr, ptr, ptr, ptr, ptr, ptr, ptr, ptr, ptr, ptr, ptr, ptr, %struct.anon.19, ptr, ptr, ptr, ptr, ptr, ptr, ptr, ptr, ptr, ptr, ptr, ptr, ptr, ptr, ptr, ptr, ptr, ptr, ptr, ptr, ptr, ptr, ptr, ptr, ptr, ptr, ptr, ptr, ptr, ptr, ptr, ptr, ptr, ptr, ptr, ptr, ptr, ptr, ptr, ptr, ptr, ptr, ptr, ptr, ptr, ptr, ptr, ptr, ptr }
%struct.anon.19 = type { ptr, ptr }

@.str.1 = private unnamed_addr constant [19 x i8] c"../qemu/blockdev.c\00", align 1
@.str.70 = private unnamed_addr constant [1 x i8] zeroinitializer, align 1
@__func__.qmp_change_backing_file = private unnamed_addr constant [24 x i8] c"qmp_change_backing_file\00", align 1
@.str.117 = private unnamed_addr constant [21 x i8] c"image file not found\00", align 1
@.str.118 = private unnamed_addr constant [68 x i8] c"not allowing backing file change on an image without a backing file\00", align 1
@.str.119 = private unnamed_addr constant [46 x i8] c"'%s' and image file are not in the same chain\00", align 1
@.str.120 = private unnamed_addr constant [38 x i8] c"Could not change backing file to '%s'\00", align 1

; Function Attrs: nounwind sspstrong uwtable
define dso_local void @qmp_change_backing_file(ptr noundef %0, ptr noundef %1, ptr noundef %2, ptr noundef %3) #0 {
  %5 = alloca ptr, align 8
  %6 = alloca ptr, align 8
  %7 = alloca ptr, align 8
  %8 = alloca ptr, align 8
  %9 = alloca ptr, align 8
  %10 = alloca ptr, align 8
  %11 = alloca ptr, align 8
  %12 = alloca i8, align 1
  %13 = alloca i32, align 4
  %14 = alloca i32, align 4
  store ptr %0, ptr %5, align 8
  store ptr %1, ptr %6, align 8
  store ptr %2, ptr %7, align 8
  store ptr %3, ptr %8, align 8
  call void @llvm.lifetime.start.p0(i64 8, ptr %9) #16
  store ptr null, ptr %9, align 8
  call void @llvm.lifetime.start.p0(i64 8, ptr %10) #16
  store ptr null, ptr %10, align 8
  call void @llvm.lifetime.start.p0(i64 8, ptr %11) #16
  store ptr null, ptr %11, align 8
  call void @llvm.lifetime.start.p0(i64 1, ptr %12) #16
  store i8 0, ptr %12, align 1, !annotation !4
  call void @llvm.lifetime.start.p0(i64 4, ptr %13) #16
  store i32 0, ptr %13, align 4, !annotation !4
  %15 = load ptr, ptr %5, align 8
  %16 = load ptr, ptr %8, align 8
  %17 = call ptr @qmp_get_root_bs(ptr noundef %15, ptr noundef %16)
  store ptr %17, ptr %9, align 8
  %18 = load ptr, ptr %9, align 8
  %19 = icmp ne ptr %18, null
  br i1 %19, label %21, label %20

20:                                               ; preds = %4
  store i32 1, ptr %14, align 4
  br label %99

21:                                               ; preds = %4
  call void @bdrv_graph_rdlock_main_loop()
  %22 = load ptr, ptr %6, align 8
  %23 = call ptr @bdrv_lookup_bs(ptr noundef null, ptr noundef %22, ptr noundef %11)
  store ptr %23, ptr %10, align 8
  %24 = load ptr, ptr %11, align 8
  %25 = icmp ne ptr %24, null
  br i1 %25, label %26, label %29

26:                                               ; preds = %21
  %27 = load ptr, ptr %8, align 8
  %28 = load ptr, ptr %11, align 8
  call void @error_propagate(ptr noundef %27, ptr noundef %28)
  br label %98

29:                                               ; preds = %21
  %30 = load ptr, ptr %10, align 8
  %31 = icmp ne ptr %30, null
  br i1 %31, label %34, label %32

32:                                               ; preds = %29
  %33 = load ptr, ptr %8, align 8
  call void (ptr, ptr, i32, ptr, ptr, ...) @error_setg_internal(ptr noundef %33, ptr noundef @.str.1, i32 noundef 3309, ptr noundef @__func__.qmp_change_backing_file, ptr noundef @.str.117)
  br label %98

34:                                               ; preds = %29
  %35 = load ptr, ptr %10, align 8
  %36 = call ptr @bdrv_find_base(ptr noundef %35)
  %37 = load ptr, ptr %10, align 8
  %38 = icmp eq ptr %36, %37
  br i1 %38, label %39, label %41

39:                                               ; preds = %34
  %40 = load ptr, ptr %8, align 8
  call void (ptr, ptr, i32, ptr, ptr, ...) @error_setg_internal(ptr noundef %40, ptr noundef @.str.1, i32 noundef 3315, ptr noundef @__func__.qmp_change_backing_file, ptr noundef @.str.118)
  br label %98

41:                                               ; preds = %34
  %42 = load ptr, ptr %9, align 8
  %43 = load ptr, ptr %8, align 8
  %44 = call zeroext i1 @bdrv_op_is_blocked(ptr noundef %42, i32 noundef 2, ptr noundef %43)
  br i1 %44, label %45, label %46

45:                                               ; preds = %41
  br label %98

46:                                               ; preds = %41
  %47 = load ptr, ptr %9, align 8
  %48 = load ptr, ptr %10, align 8
  %49 = call zeroext i1 @bdrv_chain_contains(ptr noundef %47, ptr noundef %48)
  br i1 %49, label %53, label %50

50:                                               ; preds = %46
  %51 = load ptr, ptr %8, align 8
  %52 = load ptr, ptr %5, align 8
  call void (ptr, ptr, i32, ptr, ptr, ...) @error_setg_internal(ptr noundef %51, ptr noundef @.str.1, i32 noundef 3328, ptr noundef @__func__.qmp_change_backing_file, ptr noundef @.str.119, ptr noundef %52)
  br label %98

53:                                               ; preds = %46
  call void @bdrv_graph_rdunlock_main_loop()
  %54 = load ptr, ptr %10, align 8
  %55 = call zeroext i1 @bdrv_is_read_only(ptr noundef %54)
  %56 = zext i1 %55 to i8
  store i8 %56, ptr %12, align 1
  %57 = load i8, ptr %12, align 1, !range !7, !noundef !8
  %58 = trunc i8 %57 to i1
  br i1 %58, label %59, label %66

59:                                               ; preds = %53
  %60 = load ptr, ptr %10, align 8
  %61 = load ptr, ptr %8, align 8
  %62 = call i32 @bdrv_reopen_set_read_only(ptr noundef %60, i1 noundef zeroext false, ptr noundef %61)
  %63 = icmp ne i32 %62, 0
  br i1 %63, label %64, label %65

64:                                               ; preds = %59
  store i32 1, ptr %14, align 4
  br label %99

65:                                               ; preds = %59
  br label %66

66:                                               ; preds = %65, %53
  %67 = load ptr, ptr %10, align 8
  %68 = load ptr, ptr %7, align 8
  %69 = load ptr, ptr %10, align 8
  %70 = getelementptr inbounds nuw %struct.BlockDriverState, ptr %69, i32 0, i32 6
  %71 = load ptr, ptr %70, align 8
  %72 = icmp ne ptr %71, null
  br i1 %72, label %73, label %79

73:                                               ; preds = %66
  %74 = load ptr, ptr %10, align 8
  %75 = getelementptr inbounds nuw %struct.BlockDriverState, ptr %74, i32 0, i32 6
  %76 = load ptr, ptr %75, align 8
  %77 = getelementptr inbounds nuw %struct.BlockDriver, ptr %76, i32 0, i32 0
  %78 = load ptr, ptr %77, align 8
  br label %80

79:                                               ; preds = %66
  br label %80

80:                                               ; preds = %79, %73
  %81 = phi ptr [ %78, %73 ], [ @.str.70, %79 ]
  %82 = call i32 @bdrv_change_backing_file(ptr noundef %67, ptr noundef %68, ptr noundef %81, i1 noundef zeroext false)
  store i32 %82, ptr %13, align 4
  %83 = load i32, ptr %13, align 4
  %84 = icmp slt i32 %83, 0
  br i1 %84, label %85, label %90

85:                                               ; preds = %80
  %86 = load ptr, ptr %8, align 8
  %87 = load i32, ptr %13, align 4
  %88 = sub i32 0, %87
  %89 = load ptr, ptr %7, align 8
  call void (ptr, ptr, i32, ptr, i32, ptr, ...) @error_setg_errno_internal(ptr noundef %86, ptr noundef @.str.1, i32 noundef 3348, ptr noundef @__func__.qmp_change_backing_file, i32 noundef %88, ptr noundef @.str.120, ptr noundef %89)
  br label %90

90:                                               ; preds = %85, %80
  %91 = load i8, ptr %12, align 1, !range !7, !noundef !8
  %92 = trunc i8 %91 to i1
  br i1 %92, label %93, label %97

93:                                               ; preds = %90
  %94 = load ptr, ptr %10, align 8
  %95 = load ptr, ptr %8, align 8
  %96 = call i32 @bdrv_reopen_set_read_only(ptr noundef %94, i1 noundef zeroext true, ptr noundef %95)
  br label %97

97:                                               ; preds = %93, %90
  store i32 1, ptr %14, align 4
  br label %99

98:                                               ; preds = %50, %45, %39, %32, %26
  call void @bdrv_graph_rdunlock_main_loop()
  store i32 0, ptr %14, align 4
  br label %99

99:                                               ; preds = %98, %97, %64, %20
  call void @llvm.lifetime.end.p0(i64 4, ptr %13) #16
  call void @llvm.lifetime.end.p0(i64 1, ptr %12) #16
  call void @llvm.lifetime.end.p0(i64 8, ptr %11) #16
  call void @llvm.lifetime.end.p0(i64 8, ptr %10) #16
  call void @llvm.lifetime.end.p0(i64 8, ptr %9) #16
  %100 = load i32, ptr %14, align 4
  switch i32 %100, label %102 [
    i32 0, label %101
    i32 1, label %101
  ]

101:                                              ; preds = %99, %99
  ret void

102:                                              ; preds = %99
  unreachable
}