; Function Attrs: nounwind sspstrong uwtable
define dso_local void @qmp_change_backing_file(ptr noundef %0, ptr noundef %1, ptr noundef %2, ptr noundef %3) local_unnamed_addr #0 {
  %5 = alloca ptr, align 8
  call void @llvm.lifetime.start.p0(i64 8, ptr nonnull %5) #14
  store ptr null, ptr %5, align 8
  %6 = tail call fastcc ptr @qmp_get_root_bs(ptr noundef %0, ptr noundef %3)
  %.not = icmp eq ptr %6, null
  br i1 %.not, label %41, label %7

7:                                                ; preds = %4
  tail call void @bdrv_graph_rdlock_main_loop() #14
  %8 = call ptr @bdrv_lookup_bs(ptr noundef null, ptr noundef %1, ptr noundef nonnull %5) #14
  %9 = load ptr, ptr %5, align 8
  %.not34 = icmp eq ptr %9, null
  br i1 %.not34, label %11, label %10

10:                                               ; preds = %7
  call void @error_propagate(ptr noundef %3, ptr noundef nonnull %9) #14
  br label %40

11:                                               ; preds = %7
  %.not35 = icmp eq ptr %8, null
  br i1 %.not35, label %12, label %13

12:                                               ; preds = %11
  call void (ptr, ptr, i32, ptr, ptr, ...) @error_setg_internal(ptr noundef %3, ptr noundef nonnull @.str.1, i32 noundef 3309, ptr noundef nonnull @__func__.qmp_change_backing_file, ptr noundef nonnull @.str.117) #14
  br label %40

13:                                               ; preds = %11
  %14 = call ptr @bdrv_find_base(ptr noundef nonnull %8) #14
  %15 = icmp eq ptr %14, %8
  br i1 %15, label %16, label %17

16:                                               ; preds = %13
  call void (ptr, ptr, i32, ptr, ptr, ...) @error_setg_internal(ptr noundef %3, ptr noundef nonnull @.str.1, i32 noundef 3315, ptr noundef nonnull @__func__.qmp_change_backing_file, ptr noundef nonnull @.str.118) #14
  br label %40

17:                                               ; preds = %13
  %18 = call zeroext i1 @bdrv_op_is_blocked(ptr noundef nonnull %6, i32 noundef 2, ptr noundef %3) #14
  br i1 %18, label %40, label %19

19:                                               ; preds = %17
  %20 = call zeroext i1 @bdrv_chain_contains(ptr noundef nonnull %6, ptr noundef nonnull %8) #14
  br i1 %20, label %22, label %21

21:                                               ; preds = %19
  call void (ptr, ptr, i32, ptr, ptr, ...) @error_setg_internal(ptr noundef %3, ptr noundef nonnull @.str.1, i32 noundef 3328, ptr noundef nonnull @__func__.qmp_change_backing_file, ptr noundef nonnull @.str.119, ptr noundef %0) #14
  br label %40

22:                                               ; preds = %19
  call void @bdrv_graph_rdunlock_main_loop() #14
  %23 = call zeroext i1 @bdrv_is_read_only(ptr noundef nonnull %8) #14
  br i1 %23, label %24, label %26

24:                                               ; preds = %22
  %25 = call i32 @bdrv_reopen_set_read_only(ptr noundef nonnull %8, i1 noundef zeroext false, ptr noundef %3) #14
  %.not36 = icmp eq i32 %25, 0
  br i1 %.not36, label %26, label %41

26:                                               ; preds = %24, %22
  %27 = getelementptr inbounds nuw i8, ptr %8, i64 16
  %28 = load ptr, ptr %27, align 8
  %.not37 = icmp eq ptr %28, null
  br i1 %.not37, label %31, label %29

29:                                               ; preds = %26
  %30 = load ptr, ptr %28, align 8
  br label %31

31:                                               ; preds = %26, %29
  %32 = phi ptr [ %30, %29 ], [ @.str.70, %26 ]
  %33 = call i32 @bdrv_change_backing_file(ptr noundef nonnull %8, ptr noundef %2, ptr noundef %32, i1 noundef zeroext false) #14
  %34 = icmp slt i32 %33, 0
  br i1 %34, label %35, label %37

35:                                               ; preds = %31
  %36 = sub i32 0, %33
  call void (ptr, ptr, i32, ptr, i32, ptr, ...) @error_setg_errno_internal(ptr noundef %3, ptr noundef nonnull @.str.1, i32 noundef 3348, ptr noundef nonnull @__func__.qmp_change_backing_file, i32 noundef %36, ptr noundef nonnull @.str.120, ptr noundef %2) #14
  br label %37

37:                                               ; preds = %35, %31
  br i1 %23, label %38, label %41

38:                                               ; preds = %37
  %39 = call i32 @bdrv_reopen_set_read_only(ptr noundef nonnull %8, i1 noundef zeroext true, ptr noundef %3) #14
  br label %41

40:                                               ; preds = %17, %21, %16, %12, %10
  call void @bdrv_graph_rdunlock_main_loop() #14
  br label %41

41:                                               ; preds = %37, %38, %24, %4, %40
  call void @llvm.lifetime.end.p0(i64 8, ptr nonnull %5) #14
  ret void
}